target datalayout = "e-m:e-p270:32:32-p271:32:32-p272:64:64-i64:64-i128:128-f80:128-n8:16:32:64-S128"
target triple = "x86_64-pc-linux-gnu"

%struct.cli_hashtable = type { ptr, i64, i64, i64 }
%struct.cli_map = type { %struct.cli_hashtable, %union.anon.0, i32, i32, i32, i32, i32 }
%union.anon.0 = type { ptr }
%struct.cli_map_value = type { ptr, i32 }

; Function Attrs: nounwind uwtable
define i32 @cli_map_getvalue_size(ptr noundef %0) #0 {
  %2 = alloca i32, align 4
  %3 = alloca ptr, align 8
  store ptr %0, ptr %3, align 8
  %4 = load ptr, ptr %3, align 8
  %5 = getelementptr inbounds %struct.cli_map, ptr %4, i32 0, i32 4
  %6 = load i32, ptr %5, align 8
  %7 = icmp ne i32 %6, 0
  br i1 %7, label %8, label %12

8:                                                ; preds = %1
  %9 = load ptr, ptr %3, align 8
  %10 = getelementptr inbounds %struct.cli_map, ptr %9, i32 0, i32 4
  %11 = load i32, ptr %10, align 8
  store i32 %11, ptr %2, align 4
  br label %37

12:                                               ; preds = %1
  %13 = load ptr, ptr %3, align 8
  %14 = getelementptr inbounds %struct.cli_map, ptr %13, i32 0, i32 6
  %15 = load i32, ptr %14, align 8
  %16 = icmp slt i32 %15, 0
  br i1 %16, label %25, label %17

17:                                               ; preds = %12
  %18 = load ptr, ptr %3, align 8
  %19 = getelementptr inbounds %struct.cli_map, ptr %18, i32 0, i32 6
  %20 = load i32, ptr %19, align 8
  %21 = load ptr, ptr %3, align 8
  %22 = getelementptr inbounds %struct.cli_map, ptr %21, i32 0, i32 2
  %23 = load i32, ptr %22, align 8
  %24 = icmp uge i32 %20, %23
  br i1 %24, label %25, label %26

25:                                               ; preds = %17, %12
  store i32 -1, ptr %2, align 4
  br label %37

26:                                               ; preds = %17
  %27 = load ptr, ptr %3, align 8
  %28 = getelementptr inbounds %struct.cli_map, ptr %27, i32 0, i32 1
  %29 = load ptr, ptr %28, align 8
  %30 = load ptr, ptr %3, align 8
  %31 = getelementptr inbounds %struct.cli_map, ptr %30, i32 0, i32 6
  %32 = load i32, ptr %31, align 8
  %33 = sext i32 %32 to i64
  %34 = getelementptr inbounds %struct.cli_map_value, ptr %29, i64 %33
  %35 = getelementptr inbounds %struct.cli_map_value, ptr %34, i32 0, i32 1
  %36 = load i32, ptr %35, align 8
  store i32 %36, ptr %2, align 4
  br label %37

37:                                               ; preds = %26, %25, %8
  %38 = load i32, ptr %2, align 4
  ret i32 %38
}