; Function Attrs: mustprogress nofree norecurse nosync nounwind willreturn memory(read, inaccessiblemem: none) uwtable
define i32 @cli_map_getvalue_size(ptr nocapture noundef readonly %0) local_unnamed_addr #16 {
  %2 = getelementptr inbounds i8, ptr %0, i64 48
  %3 = load i32, ptr %2, align 8
  %.not = icmp eq i32 %3, 0
  br i1 %.not, label %4, label %17

4:                                                ; preds = %1
  %5 = getelementptr inbounds i8, ptr %0, i64 56
  %6 = load i32, ptr %5, align 8
  %7 = icmp slt i32 %6, 0
  br i1 %7, label %17, label %8

8:                                                ; preds = %4
  %9 = getelementptr inbounds i8, ptr %0, i64 40
  %10 = load i32, ptr %9, align 8
  %.not9 = icmp ult i32 %6, %10
  br i1 %.not9, label %11, label %17

11:                                               ; preds = %8
  %12 = getelementptr inbounds i8, ptr %0, i64 32
  %13 = load ptr, ptr %12, align 8
  %14 = zext nneg i32 %6 to i64
  %15 = getelementptr inbounds %struct.cli_map_value, ptr %13, i64 %14, i32 1
  %16 = load i32, ptr %15, align 8
  br label %17

17:                                               ; preds = %4, %8, %1, %11
  %.0 = phi i32 [ %16, %11 ], [ %3, %1 ], [ -1, %8 ], [ -1, %4 ]
  ret i32 %.0
}